target datalayout = "e-m:e-p270:32:32-p271:32:32-p272:64:64-i64:64-i128:128-f80:128-n8:16:32:64-S128"
target triple = "x86_64-pc-linux-gnu"

%"class.std::__cxx11::basic_string" = type { %"struct.std::__cxx11::basic_string<char>::_Alloc_hider", i64, %union.anon }
%"struct.std::__cxx11::basic_string<char>::_Alloc_hider" = type { ptr }
%union.anon = type { i64, [8 x i8] }
%"class.std::tuple" = type { %"struct.std::_Tuple_impl.base.29", [4 x i8] }
%"struct.std::_Tuple_impl.base.29" = type <{ %"struct.std::_Tuple_impl.23", %"struct.std::_Head_base.28" }>
%"struct.std::_Tuple_impl.23" = type { %"struct.std::_Tuple_impl.base", %"struct.std::_Head_base.27" }
%"struct.std::_Tuple_impl.base" = type <{ %"struct.std::_Tuple_impl.25", %"struct.std::_Head_base.26" }>
%"struct.std::_Tuple_impl.25" = type { %"struct.std::_Head_base" }
%"struct.std::_Head_base" = type { i64 }
%"struct.std::_Head_base.26" = type { %"struct.opencv_test::(anonymous namespace)::Method" }
%"struct.opencv_test::(anonymous namespace)::Method" = type { i32 }
%"struct.std::_Head_base.27" = type { double }
%"struct.std::_Head_base.28" = type { i32 }
%"class.testing::Message" = type { %"class.testing::internal::scoped_ptr.104" }
%"class.testing::internal::scoped_ptr.104" = type { ptr }
%"struct.testing::TestParamInfo" = type { %"class.std::tuple", i64 }

; Function Attrs: mustprogress uwtable
define available_externally noundef nonnull align 8 dereferenceable(8) ptr @_ZNSolsEm(ptr noundef nonnull align 8 dereferenceable(8) %0, i64 noundef %1) #6 align 2 {
  %3 = alloca ptr, align 8
  %4 = alloca i64, align 8
  store ptr %0, ptr %3, align 8, !tbaa !172
  store i64 %1, ptr %4, align 8, !tbaa !80
  %5 = load ptr, ptr %3, align 8
  %6 = load i64, ptr %4, align 8, !tbaa !80
  %7 = call noundef nonnull align 8 dereferenceable(8) ptr @_ZNSo9_M_insertImEERSoT_(ptr noundef nonnull align 8 dereferenceable(8) %5, i64 noundef %6)
  ret ptr %7
}

; Function Attrs: mustprogress nounwind uwtable
define linkonce_odr hidden noundef nonnull align 8 dereferenceable(128) ptr @_ZNK7testing8internal10scoped_ptrINSt7__cxx1118basic_stringstreamIcSt11char_traitsIcESaIcEEEEdeEv(ptr noundef nonnull align 8 dereferenceable(8) %0) #9 comdat align 2 {
  %2 = alloca ptr, align 8
  store ptr %0, ptr %2, align 8, !tbaa !531
  %3 = load ptr, ptr %2, align 8
  %4 = getelementptr inbounds nuw %"class.testing::internal::scoped_ptr.104", ptr %3, i32 0, i32 0
  %5 = load ptr, ptr %4, align 8, !tbaa !533
  ret ptr %5
}

; Function Attrs: inlinehint mustprogress uwtable
define linkonce_odr hidden noundef nonnull align 8 dereferenceable(8) ptr @_ZN7testing7MessagelsImEERS0_RKT_(ptr noundef nonnull align 8 dereferenceable(8) %0, ptr noundef nonnull align 8 dereferenceable(8) %1) #11 comdat align 2 {
  %3 = alloca ptr, align 8
  %4 = alloca ptr, align 8
  store ptr %0, ptr %3, align 8, !tbaa !529
  store ptr %1, ptr %4, align 8, !tbaa !192
  %5 = load ptr, ptr %3, align 8
  %6 = getelementptr inbounds nuw %"class.testing::Message", ptr %5, i32 0, i32 0
  %7 = call noundef nonnull align 8 dereferenceable(128) ptr @_ZNK7testing8internal10scoped_ptrINSt7__cxx1118basic_stringstreamIcSt11char_traitsIcESaIcEEEEdeEv(ptr noundef nonnull align 8 dereferenceable(8) %6)
  %8 = getelementptr inbounds i8, ptr %7, i64 16
  %9 = load ptr, ptr %4, align 8, !tbaa !192
  %10 = load i64, ptr %9, align 8, !tbaa !80
  %11 = call noundef nonnull align 8 dereferenceable(8) ptr @_ZNSolsEm(ptr noundef nonnull align 8 dereferenceable(8) %8, i64 noundef %10)
  ret ptr %5
}

; Function Attrs: mustprogress uwtable
define internal void @_ZN7testing8internal16DefaultParamNameISt5tupleIJidN11opencv_test12_GLOBAL__N_16MethodEmEEEENSt7__cxx1112basic_stringIcSt11char_traitsIcESaIcEEERKNS_13TestParamInfoIT_EE(ptr dead_on_unwind noalias writable sret(%"class.std::__cxx11::basic_string") align 8 %0, ptr noundef nonnull align 8 dereferenceable(40) %1) #6 personality ptr @__gxx_personality_v0 {
  %3 = alloca ptr, align 8
  %4 = alloca ptr, align 8
  %5 = alloca %"class.testing::Message", align 8
  %6 = alloca ptr, align 8
  %7 = alloca i32, align 4
  store ptr %0, ptr %3, align 8
  store ptr %1, ptr %4, align 8, !tbaa !73
  call void @llvm.lifetime.start.p0(i64 8, ptr %5) #3
  call void @_ZN7testing7MessageC1Ev(ptr noundef nonnull align 8 dereferenceable(8) %5)
  %8 = load ptr, ptr %4, align 8, !tbaa !73
  %9 = getelementptr inbounds nuw %"struct.testing::TestParamInfo", ptr %8, i32 0, i32 1
  %10 = invoke noundef nonnull align 8 dereferenceable(8) ptr @_ZN7testing7MessagelsImEERS0_RKT_(ptr noundef nonnull align 8 dereferenceable(8) %5, ptr noundef nonnull align 8 dereferenceable(8) %9)
          to label %11 unwind label %13

11:                                               ; preds = %2
  invoke void @_ZNK7testing7Message9GetStringB5cxx11Ev(ptr dead_on_unwind writable sret(%"class.std::__cxx11::basic_string") align 8 %0, ptr noundef nonnull align 8 dereferenceable(8) %5)
          to label %12 unwind label %13

12:                                               ; preds = %11
  call void @_ZN7testing7MessageD2Ev(ptr noundef nonnull align 8 dereferenceable(8) %5) #3
  call void @llvm.lifetime.end.p0(i64 8, ptr %5) #3
  ret void

13:                                               ; preds = %11, %2
  %14 = landingpad { ptr, i32 }
          cleanup
  %15 = extractvalue { ptr, i32 } %14, 0
  store ptr %15, ptr %6, align 8
  %16 = extractvalue { ptr, i32 } %14, 1
  store i32 %16, ptr %7, align 4
  call void @_ZN7testing7MessageD2Ev(ptr noundef nonnull align 8 dereferenceable(8) %5) #3
  call void @llvm.lifetime.end.p0(i64 8, ptr %5) #3
  br label %17

17:                                               ; preds = %13
  %18 = load ptr, ptr %6, align 8
  %19 = load i32, ptr %7, align 4
  %20 = insertvalue { ptr, i32 } poison, ptr %18, 0
  %21 = insertvalue { ptr, i32 } %20, i32 %19, 1
  resume { ptr, i32 } %21
}